target datalayout = "e-m:e-p270:32:32-p271:32:32-p272:64:64-i64:64-i128:128-f80:128-n8:16:32:64-S128"
target triple = "x86_64-pc-linux-gnu"

%struct.CommitTimestampShared = type { i32, %struct.CommitTimestampEntry, i8 }
%struct.CommitTimestampEntry = type { i64, i16 }
%union.LWLockPadded = type { %struct.LWLock, [112 x i8] }
%struct.LWLock = type { i16, %struct.pg_atomic_uint32, %struct.proclist_head }
%struct.pg_atomic_uint32 = type { i32 }
%struct.proclist_head = type { i32, i32 }

@commitTsShared = internal global ptr null, align 8
@MainLWLockArray = external global ptr, align 8

; Function Attrs: nounwind uwtable
define dso_local i32 @GetLatestCommitTsData(ptr noundef %0, ptr noundef %1) #0 {
  %3 = alloca ptr, align 8
  %4 = alloca ptr, align 8
  %5 = alloca i32, align 4
  store ptr %0, ptr %3, align 8
  store ptr %1, ptr %4, align 8
  call void @llvm.lifetime.start.p0(i64 4, ptr %5) #7
  %6 = load ptr, ptr @MainLWLockArray, align 8
  %7 = getelementptr inbounds %union.LWLockPadded, ptr %6, i64 39
  %8 = call zeroext i1 @LWLockAcquire(ptr noundef %7, i32 noundef 1)
  %9 = load ptr, ptr @commitTsShared, align 8
  %10 = getelementptr inbounds nuw %struct.CommitTimestampShared, ptr %9, i32 0, i32 2
  %11 = load i8, ptr %10, align 8, !range !4, !noundef !5
  %12 = trunc i8 %11 to i1
  br i1 %12, label %14, label %13

13:                                               ; preds = %2
  call void @error_commit_ts_disabled()
  br label %14

14:                                               ; preds = %13, %2
  %15 = load ptr, ptr @commitTsShared, align 8
  %16 = getelementptr inbounds nuw %struct.CommitTimestampShared, ptr %15, i32 0, i32 0
  %17 = load i32, ptr %16, align 8
  store i32 %17, ptr %5, align 4
  %18 = load ptr, ptr %3, align 8
  %19 = icmp ne ptr %18, null
  br i1 %19, label %20, label %26

20:                                               ; preds = %14
  %21 = load ptr, ptr @commitTsShared, align 8
  %22 = getelementptr inbounds nuw %struct.CommitTimestampShared, ptr %21, i32 0, i32 1
  %23 = getelementptr inbounds nuw %struct.CommitTimestampEntry, ptr %22, i32 0, i32 0
  %24 = load i64, ptr %23, align 8
  %25 = load ptr, ptr %3, align 8
  store i64 %24, ptr %25, align 8
  br label %26

26:                                               ; preds = %20, %14
  %27 = load ptr, ptr %4, align 8
  %28 = icmp ne ptr %27, null
  br i1 %28, label %29, label %35

29:                                               ; preds = %26
  %30 = load ptr, ptr @commitTsShared, align 8
  %31 = getelementptr inbounds nuw %struct.CommitTimestampShared, ptr %30, i32 0, i32 1
  %32 = getelementptr inbounds nuw %struct.CommitTimestampEntry, ptr %31, i32 0, i32 1
  %33 = load i16, ptr %32, align 8
  %34 = load ptr, ptr %4, align 8
  store i16 %33, ptr %34, align 2
  br label %35

35:                                               ; preds = %29, %26
  %36 = load ptr, ptr @MainLWLockArray, align 8
  %37 = getelementptr inbounds %union.LWLockPadded, ptr %36, i64 39
  call void @LWLockRelease(ptr noundef %37)
  %38 = load i32, ptr %5, align 4
  call void @llvm.lifetime.end.p0(i64 4, ptr %5) #7
  ret i32 %38
}