; Function Attrs: nounwind uwtable
define dso_local i32 @GetLatestCommitTsData(ptr noundef writeonly captures(address_is_null) %0, ptr noundef writeonly captures(address_is_null) %1) local_unnamed_addr #0 {
  %3 = load ptr, ptr @MainLWLockArray, align 8
  %4 = getelementptr inbounds nuw i8, ptr %3, i64 4992
  %5 = tail call zeroext i1 @LWLockAcquire(ptr noundef nonnull %4, i32 noundef 1) #9
  %6 = load ptr, ptr @commitTsShared, align 8
  %7 = getelementptr inbounds nuw i8, ptr %6, i64 24
  %8 = load i8, ptr %7, align 8, !range !4, !noundef !5
  %9 = trunc nuw i8 %8 to i1
  br i1 %9, label %11, label %10

10:                                               ; preds = %2
  tail call fastcc void @error_commit_ts_disabled()
  unreachable

11:                                               ; preds = %2
  %12 = load i32, ptr %6, align 8
  %.not = icmp eq ptr %0, null
  br i1 %.not, label %16, label %13

13:                                               ; preds = %11
  %14 = getelementptr inbounds nuw i8, ptr %6, i64 8
  %15 = load i64, ptr %14, align 8
  store i64 %15, ptr %0, align 8
  br label %16

16:                                               ; preds = %13, %11
  %.not5 = icmp eq ptr %1, null
  br i1 %.not5, label %20, label %17

17:                                               ; preds = %16
  %18 = getelementptr inbounds nuw i8, ptr %6, i64 16
  %19 = load i16, ptr %18, align 8
  store i16 %19, ptr %1, align 2
  br label %20

20:                                               ; preds = %17, %16
  %21 = load ptr, ptr @MainLWLockArray, align 8
  %22 = getelementptr inbounds nuw i8, ptr %21, i64 4992
  tail call void @LWLockRelease(ptr noundef nonnull %22) #9
  ret i32 %12
}